; Function Attrs: nounwind uwtable
define i32 @Bmcs_ManUnfold_rec(ptr noundef %0, i32 noundef %1, i32 noundef %2) local_unnamed_addr #0 {
  %4 = getelementptr i8, ptr %0, i64 40
  %.val60 = load ptr, ptr %4, align 8
  %5 = sext i32 %2 to i64
  %6 = getelementptr inbounds ptr, ptr %.val60, i64 %5
  %7 = load ptr, ptr %6, align 8
  %8 = sext i32 %1 to i64
  %9 = getelementptr inbounds i32, ptr %7, i64 %8
  %10 = load i32, ptr %9, align 4
  %11 = icmp sgt i32 %10, -1
  br i1 %11, label %79, label %12

12:                                               ; preds = %3
  %13 = getelementptr inbounds nuw i8, ptr %0, i64 8
  %14 = load ptr, ptr %13, align 8
  %15 = getelementptr i8, ptr %14, i64 32
  %.val = load ptr, ptr %15, align 8
  %16 = getelementptr inbounds %struct.Gia_Obj_t_, ptr %.val, i64 %8
  %.val50 = load i64, ptr %16, align 4
  %17 = and i64 %.val50, 2684354559
  %narrow.i.not = icmp eq i64 %17, 2684354559
  br i1 %narrow.i.not, label %Gia_ObjIsPi.exit, label %51

Gia_ObjIsPi.exit:                                 ; preds = %12
  %18 = lshr i64 %.val50, 32
  %19 = trunc nuw i64 %18 to i32
  %20 = and i32 %19, 536870911
  %21 = getelementptr i8, ptr %14, i64 16
  %.val4.i = load i32, ptr %21, align 8
  %22 = getelementptr i8, ptr %14, i64 64
  %.val5.i = load ptr, ptr %22, align 8
  %23 = getelementptr i8, ptr %.val5.i, i64 4
  %.val5.val.i = load i32, ptr %23, align 4
  %24 = sub nsw i32 %.val5.val.i, %.val4.i
  %.not = icmp slt i32 %20, %24
  br i1 %.not, label %25, label %Gia_ObjIsPi.exit.thread

25:                                               ; preds = %Gia_ObjIsPi.exit
  %26 = getelementptr inbounds nuw i8, ptr %0, i64 64
  tail call fastcc void @Vec_IntPushTwo(ptr noundef nonnull %26, i32 noundef %20, i32 noundef %2)
  %27 = getelementptr inbounds nuw i8, ptr %0, i64 16
  %28 = load ptr, ptr %27, align 8
  %29 = tail call fastcc i32 @Gia_ManAppendCi(ptr noundef %28)
  br label %78

Gia_ObjIsPi.exit.thread:                          ; preds = %Gia_ObjIsPi.exit
  %30 = icmp sgt i32 %2, 0
  br i1 %30, label %31, label %78

31:                                               ; preds = %Gia_ObjIsPi.exit.thread
  %32 = getelementptr i8, ptr %14, i64 72
  %.val6.i = load ptr, ptr %32, align 8
  %33 = getelementptr i8, ptr %.val6.i, i64 4
  %.val6.val.i = load i32, ptr %33, align 4
  %34 = add i32 %.val6.val.i, %20
  %35 = sub i32 %34, %.val5.val.i
  %36 = getelementptr i8, ptr %.val6.i, i64 8
  %.val5.val.i63 = load ptr, ptr %36, align 8
  %37 = sext i32 %35 to i64
  %38 = getelementptr inbounds i32, ptr %.val5.val.i63, i64 %37
  %39 = load i32, ptr %38, align 4
  %40 = sext i32 %39 to i64
  %41 = getelementptr inbounds %struct.Gia_Obj_t_, ptr %.val, i64 %40
  %.val.i = load i64, ptr %41, align 4
  %42 = trunc i64 %.val.i to i32
  %43 = and i32 %42, 536870911
  %44 = sub nsw i32 %39, %43
  %45 = add nsw i32 %2, -1
  %46 = tail call i32 @Bmcs_ManUnfold_rec(ptr noundef nonnull %0, i32 noundef %44, i32 noundef %45)
  %.val55 = load i64, ptr %41, align 4
  %47 = trunc i64 %.val55 to i32
  %48 = lshr i32 %47, 29
  %49 = and i32 %48, 1
  %50 = xor i32 %49, %46
  br label %78

51:                                               ; preds = %12
  %52 = and i64 %.val50, 2147483648
  %.not.i = icmp ne i64 %52, 0
  %53 = and i64 %.val50, 536870911
  %54 = icmp eq i64 %53, 536870911
  %narrow.i64.not = or i1 %.not.i, %54
  br i1 %narrow.i64.not, label %78, label %55

55:                                               ; preds = %51
  %56 = trunc i64 %.val50 to i32
  %57 = and i32 %56, 536870911
  %58 = sub nsw i32 %1, %57
  %59 = tail call i32 @Bmcs_ManUnfold_rec(ptr noundef nonnull %0, i32 noundef %58, i32 noundef %2)
  %.val56 = load i64, ptr %16, align 4
  %60 = trunc i64 %.val56 to i32
  %61 = lshr i32 %60, 29
  %62 = and i32 %61, 1
  %63 = xor i32 %62, %59
  %64 = icmp sgt i32 %63, 0
  br i1 %64, label %65, label %78

65:                                               ; preds = %55
  %66 = lshr i64 %.val56, 32
  %67 = trunc nuw i64 %66 to i32
  %68 = and i32 %67, 536870911
  %69 = sub nsw i32 %1, %68
  %70 = tail call i32 @Bmcs_ManUnfold_rec(ptr noundef nonnull %0, i32 noundef %69, i32 noundef %2)
  %.val61 = load i64, ptr %16, align 4
  %71 = lshr i64 %.val61, 61
  %72 = trunc nuw nsw i64 %71 to i32
  %73 = and i32 %72, 1
  %74 = xor i32 %73, %70
  %75 = getelementptr inbounds nuw i8, ptr %0, i64 16
  %76 = load ptr, ptr %75, align 8
  %77 = tail call i32 @Gia_ManHashAnd(ptr noundef %76, i32 noundef %63, i32 noundef %74) #23
  br label %78

78:                                               ; preds = %65, %55, %51, %25, %31, %Gia_ObjIsPi.exit.thread
  %.044 = phi i32 [ %29, %25 ], [ %50, %31 ], [ 0, %Gia_ObjIsPi.exit.thread ], [ %77, %65 ], [ %63, %55 ], [ 0, %51 ]
  store i32 %.044, ptr %9, align 4
  br label %79

79:                                               ; preds = %3, %78
  %.0 = phi i32 [ %.044, %78 ], [ %10, %3 ]
  ret i32 %.0
}